target datalayout = "e-m:e-p270:32:32-p271:32:32-p272:64:64-i64:64-i128:128-f80:128-n8:16:32:64-S128"
target triple = "x86_64-pc-linux-gnu"

@.str.46 = private unnamed_addr constant [36 x i8] c"%s creates a PostgreSQL database.\0A\0A\00", align 1
@.str.47 = private unnamed_addr constant [8 x i8] c"Usage:\0A\00", align 1
@.str.48 = private unnamed_addr constant [41 x i8] c"  %s [OPTION]... [DBNAME] [DESCRIPTION]\0A\00", align 1
@.str.49 = private unnamed_addr constant [11 x i8] c"\0AOptions:\0A\00", align 1
@.str.50 = private unnamed_addr constant [68 x i8] c"  -D, --tablespace=TABLESPACE  default tablespace for the database\0A\00", align 1
@.str.51 = private unnamed_addr constant [75 x i8] c"  -e, --echo                   show the commands being sent to the server\0A\00", align 1
@.str.52 = private unnamed_addr constant [58 x i8] c"  -E, --encoding=ENCODING      encoding for the database\0A\00", align 1
@.str.53 = private unnamed_addr constant [65 x i8] c"  -l, --locale=LOCALE          locale settings for the database\0A\00", align 1
@.str.54 = private unnamed_addr constant [68 x i8] c"      --lc-collate=LOCALE      LC_COLLATE setting for the database\0A\00", align 1
@.str.55 = private unnamed_addr constant [66 x i8] c"      --lc-ctype=LOCALE        LC_CTYPE setting for the database\0A\00", align 1
@.str.56 = private unnamed_addr constant [72 x i8] c"      --builtin-locale=LOCALE  builtin locale setting for the database\0A\00", align 1
@.str.57 = private unnamed_addr constant [68 x i8] c"      --icu-locale=LOCALE      ICU locale setting for the database\0A\00", align 1
@.str.58 = private unnamed_addr constant [67 x i8] c"      --icu-rules=RULES        ICU rules setting for the database\0A\00", align 1
@.str.59 = private unnamed_addr constant [128 x i8] c"      --locale-provider={builtin|libc|icu}\0A                               locale provider for the database's default collation\0A\00", align 1
@.str.60 = private unnamed_addr constant [70 x i8] c"  -O, --owner=OWNER            database user to own the new database\0A\00", align 1
@.str.61 = private unnamed_addr constant [80 x i8] c"  -S, --strategy=STRATEGY      database creation strategy wal_log or file_copy\0A\00", align 1
@.str.62 = private unnamed_addr constant [58 x i8] c"  -T, --template=TEMPLATE      template database to copy\0A\00", align 1
@.str.63 = private unnamed_addr constant [70 x i8] c"  -V, --version                output version information, then exit\0A\00", align 1
@.str.64 = private unnamed_addr constant [58 x i8] c"  -?, --help                   show this help, then exit\0A\00", align 1
@.str.65 = private unnamed_addr constant [22 x i8] c"\0AConnection options:\0A\00", align 1
@.str.66 = private unnamed_addr constant [73 x i8] c"  -h, --host=HOSTNAME          database server host or socket directory\0A\00", align 1
@.str.67 = private unnamed_addr constant [53 x i8] c"  -p, --port=PORT              database server port\0A\00", align 1
@.str.68 = private unnamed_addr constant [56 x i8] c"  -U, --username=USERNAME      user name to connect as\0A\00", align 1
@.str.69 = private unnamed_addr constant [58 x i8] c"  -w, --no-password            never prompt for password\0A\00", align 1
@.str.70 = private unnamed_addr constant [54 x i8] c"  -W, --password               force password prompt\0A\00", align 1
@.str.71 = private unnamed_addr constant [63 x i8] c"  --maintenance-db=DBNAME      alternate maintenance database\0A\00", align 1
@.str.72 = private unnamed_addr constant [76 x i8] c"\0ABy default, a database with the same name as the current user is created.\0A\00", align 1
@.str.73 = private unnamed_addr constant [23 x i8] c"\0AReport bugs to <%s>.\0A\00", align 1
@.str.74 = private unnamed_addr constant [32 x i8] c"pgsql-bugs@lists.postgresql.org\00", align 1
@.str.75 = private unnamed_addr constant [20 x i8] c"%s home page: <%s>\0A\00", align 1
@.str.76 = private unnamed_addr constant [11 x i8] c"PostgreSQL\00", align 1
@.str.77 = private unnamed_addr constant [28 x i8] c"https://www.postgresql.org/\00", align 1

; Function Attrs: nounwind uwtable
define internal void @help(ptr noundef %0) #0 {
  %2 = alloca ptr, align 8
  store ptr %0, ptr %2, align 8
  %3 = load ptr, ptr %2, align 8
  %4 = call i32 (ptr, ...) @pg_printf(ptr noundef @.str.46, ptr noundef %3)
  %5 = call i32 (ptr, ...) @pg_printf(ptr noundef @.str.47)
  %6 = load ptr, ptr %2, align 8
  %7 = call i32 (ptr, ...) @pg_printf(ptr noundef @.str.48, ptr noundef %6)
  %8 = call i32 (ptr, ...) @pg_printf(ptr noundef @.str.49)
  %9 = call i32 (ptr, ...) @pg_printf(ptr noundef @.str.50)
  %10 = call i32 (ptr, ...) @pg_printf(ptr noundef @.str.51)
  %11 = call i32 (ptr, ...) @pg_printf(ptr noundef @.str.52)
  %12 = call i32 (ptr, ...) @pg_printf(ptr noundef @.str.53)
  %13 = call i32 (ptr, ...) @pg_printf(ptr noundef @.str.54)
  %14 = call i32 (ptr, ...) @pg_printf(ptr noundef @.str.55)
  %15 = call i32 (ptr, ...) @pg_printf(ptr noundef @.str.56)
  %16 = call i32 (ptr, ...) @pg_printf(ptr noundef @.str.57)
  %17 = call i32 (ptr, ...) @pg_printf(ptr noundef @.str.58)
  %18 = call i32 (ptr, ...) @pg_printf(ptr noundef @.str.59)
  %19 = call i32 (ptr, ...) @pg_printf(ptr noundef @.str.60)
  %20 = call i32 (ptr, ...) @pg_printf(ptr noundef @.str.61)
  %21 = call i32 (ptr, ...) @pg_printf(ptr noundef @.str.62)
  %22 = call i32 (ptr, ...) @pg_printf(ptr noundef @.str.63)
  %23 = call i32 (ptr, ...) @pg_printf(ptr noundef @.str.64)
  %24 = call i32 (ptr, ...) @pg_printf(ptr noundef @.str.65)
  %25 = call i32 (ptr, ...) @pg_printf(ptr noundef @.str.66)
  %26 = call i32 (ptr, ...) @pg_printf(ptr noundef @.str.67)
  %27 = call i32 (ptr, ...) @pg_printf(ptr noundef @.str.68)
  %28 = call i32 (ptr, ...) @pg_printf(ptr noundef @.str.69)
  %29 = call i32 (ptr, ...) @pg_printf(ptr noundef @.str.70)
  %30 = call i32 (ptr, ...) @pg_printf(ptr noundef @.str.71)
  %31 = call i32 (ptr, ...) @pg_printf(ptr noundef @.str.72)
  %32 = call i32 (ptr, ...) @pg_printf(ptr noundef @.str.73, ptr noundef @.str.74)
  %33 = call i32 (ptr, ...) @pg_printf(ptr noundef @.str.75, ptr noundef @.str.76, ptr noundef @.str.77)
  ret void
}