; Function Attrs: nounwind uwtable
define internal void @help(ptr noundef %0) #3 {
  %2 = tail call i32 (ptr, ...) @pg_printf(ptr noundef nonnull @.str.46, ptr noundef %0) #8
  %3 = tail call i32 (ptr, ...) @pg_printf(ptr noundef nonnull @.str.47) #8
  %4 = tail call i32 (ptr, ...) @pg_printf(ptr noundef nonnull @.str.48, ptr noundef %0) #8
  %5 = tail call i32 (ptr, ...) @pg_printf(ptr noundef nonnull @.str.49) #8
  %6 = tail call i32 (ptr, ...) @pg_printf(ptr noundef nonnull @.str.50) #8
  %7 = tail call i32 (ptr, ...) @pg_printf(ptr noundef nonnull @.str.51) #8
  %8 = tail call i32 (ptr, ...) @pg_printf(ptr noundef nonnull @.str.52) #8
  %9 = tail call i32 (ptr, ...) @pg_printf(ptr noundef nonnull @.str.53) #8
  %10 = tail call i32 (ptr, ...) @pg_printf(ptr noundef nonnull @.str.54) #8
  %11 = tail call i32 (ptr, ...) @pg_printf(ptr noundef nonnull @.str.55) #8
  %12 = tail call i32 (ptr, ...) @pg_printf(ptr noundef nonnull @.str.56) #8
  %13 = tail call i32 (ptr, ...) @pg_printf(ptr noundef nonnull @.str.57) #8
  %14 = tail call i32 (ptr, ...) @pg_printf(ptr noundef nonnull @.str.58) #8
  %15 = tail call i32 (ptr, ...) @pg_printf(ptr noundef nonnull @.str.59) #8
  %16 = tail call i32 (ptr, ...) @pg_printf(ptr noundef nonnull @.str.60) #8
  %17 = tail call i32 (ptr, ...) @pg_printf(ptr noundef nonnull @.str.61) #8
  %18 = tail call i32 (ptr, ...) @pg_printf(ptr noundef nonnull @.str.62) #8
  %19 = tail call i32 (ptr, ...) @pg_printf(ptr noundef nonnull @.str.63) #8
  %20 = tail call i32 (ptr, ...) @pg_printf(ptr noundef nonnull @.str.64) #8
  %21 = tail call i32 (ptr, ...) @pg_printf(ptr noundef nonnull @.str.65) #8
  %22 = tail call i32 (ptr, ...) @pg_printf(ptr noundef nonnull @.str.66) #8
  %23 = tail call i32 (ptr, ...) @pg_printf(ptr noundef nonnull @.str.67) #8
  %24 = tail call i32 (ptr, ...) @pg_printf(ptr noundef nonnull @.str.68) #8
  %25 = tail call i32 (ptr, ...) @pg_printf(ptr noundef nonnull @.str.69) #8
  %26 = tail call i32 (ptr, ...) @pg_printf(ptr noundef nonnull @.str.70) #8
  %27 = tail call i32 (ptr, ...) @pg_printf(ptr noundef nonnull @.str.71) #8
  %28 = tail call i32 (ptr, ...) @pg_printf(ptr noundef nonnull @.str.72) #8
  %29 = tail call i32 (ptr, ...) @pg_printf(ptr noundef nonnull @.str.73, ptr noundef nonnull @.str.74) #8
  %30 = tail call i32 (ptr, ...) @pg_printf(ptr noundef nonnull @.str.75, ptr noundef nonnull @.str.76, ptr noundef nonnull @.str.77) #8
  ret void
}